; Function Attrs: nounwind uwtable
define dso_local ptr @GetRelationPublications(i32 noundef %0) local_unnamed_addr #0 {
  %2 = zext i32 %0 to i64
  %3 = tail call ptr @SearchSysCacheList(i32 noundef 53, i32 noundef 1, i64 noundef %2, i64 noundef 0, i64 noundef 0) #6
  %4 = getelementptr inbounds nuw i8, ptr %3, i64 64
  %5 = load i32, ptr %4, align 8
  %6 = icmp sgt i32 %5, 0
  br i1 %6, label %.lr.ph, label %._crit_edge

.lr.ph:                                           ; preds = %1
  %7 = getelementptr inbounds nuw i8, ptr %3, i64 80
  br label %8

8:                                                ; preds = %.lr.ph, %8
  %indvars.iv = phi i64 [ 0, %.lr.ph ], [ %indvars.iv.next, %8 ]
  %.012 = phi ptr [ null, %.lr.ph ], [ %18, %8 ]
  %9 = getelementptr inbounds nuw [0 x ptr], ptr %7, i64 0, i64 %indvars.iv
  %10 = load ptr, ptr %9, align 8
  %11 = getelementptr i8, ptr %10, i64 80
  %.val = load ptr, ptr %11, align 8
  %12 = getelementptr inbounds nuw i8, ptr %.val, i64 22
  %13 = load i8, ptr %12, align 2
  %14 = zext i8 %13 to i64
  %15 = getelementptr inbounds nuw i8, ptr %.val, i64 %14
  %16 = getelementptr inbounds nuw i8, ptr %15, i64 4
  %17 = load i32, ptr %16, align 4
  %18 = tail call ptr @lappend_oid(ptr noundef %.012, i32 noundef %17) #6
  %indvars.iv.next = add nuw nsw i64 %indvars.iv, 1
  %19 = load i32, ptr %4, align 8
  %20 = sext i32 %19 to i64
  %21 = icmp slt i64 %indvars.iv.next, %20
  br i1 %21, label %8, label %._crit_edge, !llvm.loop !8

._crit_edge:                                      ; preds = %8, %1
  %.0.lcssa = phi ptr [ null, %1 ], [ %18, %8 ]
  tail call void @ReleaseCatCacheList(ptr noundef nonnull %3) #6
  ret ptr %.0.lcssa
}